target datalayout = "e-m:e-p270:32:32-p271:32:32-p272:64:64-i64:64-i128:128-f80:128-n8:16:32:64-S128"
target triple = "x86_64-pc-linux-gnu"

%struct.ossl_decoder_instance_st = type { ptr, ptr, ptr, ptr, i32, i8 }
%struct.ossl_decoder_st = type { %struct.ossl_endecode_base_st, ptr, ptr, ptr, ptr, ptr, ptr, ptr, ptr, ptr }
%struct.ossl_endecode_base_st = type { ptr, i32, ptr, ptr, ptr, %struct.CRYPTO_REF_COUNT }
%struct.CRYPTO_REF_COUNT = type { i32 }

@.str = private unnamed_addr constant [46 x i8] c"../openssl/crypto/encode_decode/decoder_lib.c\00", align 1
@__func__.ossl_decoder_instance_dup = private unnamed_addr constant [26 x i8] c"ossl_decoder_instance_dup\00", align 1

; Function Attrs: nounwind uwtable
define ptr @ossl_decoder_instance_dup(ptr noundef %0) #0 {
  %2 = alloca ptr, align 8
  %3 = alloca ptr, align 8
  %4 = alloca ptr, align 8
  %5 = alloca ptr, align 8
  %6 = alloca ptr, align 8
  %7 = alloca i32, align 4
  store ptr %0, ptr %3, align 8, !tbaa !30
  call void @llvm.lifetime.start.p0(i64 8, ptr %4) #7
  call void @llvm.lifetime.start.p0(i64 8, ptr %5) #7
  call void @llvm.lifetime.start.p0(i64 8, ptr %6) #7
  %8 = call noalias ptr @CRYPTO_zalloc(i64 noundef 40, ptr noundef @.str, i32 noundef 290)
  store ptr %8, ptr %4, align 8, !tbaa !30
  %9 = icmp eq ptr %8, null
  br i1 %9, label %10, label %11

10:                                               ; preds = %1
  store ptr null, ptr %2, align 8
  store i32 1, ptr %7, align 4
  br label %48

11:                                               ; preds = %1
  %12 = load ptr, ptr %4, align 8, !tbaa !30
  %13 = load ptr, ptr %3, align 8, !tbaa !30
  call void @llvm.memcpy.p0.p0.i64(ptr align 8 %12, ptr align 8 %13, i64 40, i1 false), !tbaa.struct !73
  %14 = load ptr, ptr %4, align 8, !tbaa !30
  %15 = getelementptr inbounds nuw %struct.ossl_decoder_instance_st, ptr %14, i32 0, i32 0
  %16 = load ptr, ptr %15, align 8, !tbaa !70
  %17 = call i32 @OSSL_DECODER_up_ref(ptr noundef %16)
  %18 = icmp ne i32 %17, 0
  br i1 %18, label %20, label %19

19:                                               ; preds = %11
  call void @ERR_new()
  call void @ERR_set_debug(ptr noundef @.str, i32 noundef 295, ptr noundef @__func__.ossl_decoder_instance_dup)
  call void (i32, i32, ptr, ...) @ERR_set_error(i32 noundef 60, i32 noundef 786691, ptr noundef null)
  br label %46

20:                                               ; preds = %11
  %21 = load ptr, ptr %4, align 8, !tbaa !30
  %22 = getelementptr inbounds nuw %struct.ossl_decoder_instance_st, ptr %21, i32 0, i32 0
  %23 = load ptr, ptr %22, align 8, !tbaa !70
  %24 = call ptr @OSSL_DECODER_get0_provider(ptr noundef %23)
  store ptr %24, ptr %5, align 8, !tbaa !60
  %25 = load ptr, ptr %5, align 8, !tbaa !60
  %26 = call ptr @OSSL_PROVIDER_get0_provider_ctx(ptr noundef %25)
  store ptr %26, ptr %6, align 8, !tbaa !27
  %27 = load ptr, ptr %4, align 8, !tbaa !30
  %28 = getelementptr inbounds nuw %struct.ossl_decoder_instance_st, ptr %27, i32 0, i32 0
  %29 = load ptr, ptr %28, align 8, !tbaa !70
  %30 = getelementptr inbounds nuw %struct.ossl_decoder_st, ptr %29, i32 0, i32 1
  %31 = load ptr, ptr %30, align 8, !tbaa !75
  %32 = load ptr, ptr %6, align 8, !tbaa !27
  %33 = call ptr %31(ptr noundef %32)
  %34 = load ptr, ptr %4, align 8, !tbaa !30
  %35 = getelementptr inbounds nuw %struct.ossl_decoder_instance_st, ptr %34, i32 0, i32 1
  store ptr %33, ptr %35, align 8, !tbaa !71
  %36 = load ptr, ptr %4, align 8, !tbaa !30
  %37 = getelementptr inbounds nuw %struct.ossl_decoder_instance_st, ptr %36, i32 0, i32 1
  %38 = load ptr, ptr %37, align 8, !tbaa !71
  %39 = icmp eq ptr %38, null
  br i1 %39, label %40, label %44

40:                                               ; preds = %20
  call void @ERR_new()
  call void @ERR_set_debug(ptr noundef @.str, i32 noundef 303, ptr noundef @__func__.ossl_decoder_instance_dup)
  call void (i32, i32, ptr, ...) @ERR_set_error(i32 noundef 60, i32 noundef 786691, ptr noundef null)
  %41 = load ptr, ptr %4, align 8, !tbaa !30
  %42 = getelementptr inbounds nuw %struct.ossl_decoder_instance_st, ptr %41, i32 0, i32 0
  %43 = load ptr, ptr %42, align 8, !tbaa !70
  call void @OSSL_DECODER_free(ptr noundef %43)
  br label %46

44:                                               ; preds = %20
  %45 = load ptr, ptr %4, align 8, !tbaa !30
  store ptr %45, ptr %2, align 8
  store i32 1, ptr %7, align 4
  br label %48

46:                                               ; preds = %40, %19
  %47 = load ptr, ptr %4, align 8, !tbaa !30
  call void @CRYPTO_free(ptr noundef %47, ptr noundef @.str, i32 noundef 311)
  store ptr null, ptr %2, align 8
  store i32 1, ptr %7, align 4
  br label %48

48:                                               ; preds = %46, %44, %10
  call void @llvm.lifetime.end.p0(i64 8, ptr %6) #7
  call void @llvm.lifetime.end.p0(i64 8, ptr %5) #7
  call void @llvm.lifetime.end.p0(i64 8, ptr %4) #7
  %49 = load ptr, ptr %2, align 8
  ret ptr %49
}